; Function Attrs: nofree norecurse nosync nounwind memory(write, argmem: read, inaccessiblemem: none) uwtable
define noundef nonnull ptr @TextToPascal(ptr noundef readonly captures(address_is_null) %0) local_unnamed_addr #16 {
  tail call void @llvm.memset.p0.i64(ptr noundef nonnull align 16 dereferenceable(1024) @TextToPascal.buffer, i8 0, i64 1024, i1 false)
  %.not = icmp eq ptr %0, null
  br i1 %.not, label %.critedge, label %2

2:                                                ; preds = %1
  %3 = load i8, ptr %0, align 1
  %4 = add i8 %3, -97
  %or.cond = icmp ult i8 %4, 26
  %narrow = add nsw i8 %3, -32
  %spec.select = select i1 %or.cond, i8 %narrow, i8 %3
  store i8 %spec.select, ptr @TextToPascal.buffer, align 16
  br label %5

5:                                                ; preds = %2, %17
  %indvars.iv = phi i64 [ 1, %2 ], [ %indvars.iv.next, %17 ]
  %.032 = phi i32 [ 1, %2 ], [ %18, %17 ]
  %6 = sext i32 %.032 to i64
  %7 = getelementptr inbounds i8, ptr %0, i64 %6
  %8 = load i8, ptr %7, align 1
  switch i8 %8, label %.sink.split [
    i8 0, label %.critedge
    i8 95, label %9
  ]

9:                                                ; preds = %5
  %10 = add nsw i32 %.032, 1
  %11 = sext i32 %10 to i64
  %12 = getelementptr inbounds i8, ptr %0, i64 %11
  %13 = load i8, ptr %12, align 1
  %14 = add i8 %13, -97
  %or.cond30 = icmp ult i8 %14, 26
  br i1 %or.cond30, label %15, label %17

15:                                               ; preds = %9
  %narrow29 = add nsw i8 %13, -32
  br label %.sink.split

.sink.split:                                      ; preds = %5, %15
  %.sink = phi i8 [ %narrow29, %15 ], [ %8, %5 ]
  %.1.ph = phi i32 [ %10, %15 ], [ %.032, %5 ]
  %16 = getelementptr inbounds nuw [1024 x i8], ptr @TextToPascal.buffer, i64 0, i64 %indvars.iv
  store i8 %.sink, ptr %16, align 1
  br label %17

17:                                               ; preds = %.sink.split, %9
  %.1 = phi i32 [ %10, %9 ], [ %.1.ph, %.sink.split ]
  %indvars.iv.next = add nuw nsw i64 %indvars.iv, 1
  %18 = add nsw i32 %.1, 1
  %exitcond.not = icmp eq i64 %indvars.iv.next, 1023
  br i1 %exitcond.not, label %.critedge, label %5

.critedge:                                        ; preds = %5, %17, %1
  ret ptr @TextToPascal.buffer
}